target datalayout = "e-m:e-p270:32:32-p271:32:32-p272:64:64-i64:64-i128:128-f80:128-n8:16:32:64-S128"
target triple = "x86_64-pc-linux-gnu"

%struct.AVCodecContext = type { ptr, i32, i32, ptr, i32, i32, ptr, ptr, ptr, i64, i32, i32, ptr, i32, %struct.AVRational, %struct.AVRational, %struct.AVRational, i32, i32, i32, i32, i32, %struct.AVRational, i32, i32, i32, i32, i32, i32, i32, i32, i32, i32, i32, ptr, ptr, i32, float, float, float, float, float, float, float, float, float, i32, i32, i32, i32, i32, i32, i32, i32, i32, i32, i32, i32, ptr, ptr, ptr, i32, i32, i32, i32, i32, i32, i32, i32, i32, i32, %struct.AVChannelLayout, i32, i32, i32, i32, i32, i32, i32, i32, ptr, i32, i32, i32, float, float, i32, i32, i32, i32, i32, ptr, i64, i64, float, float, i32, i32, ptr, ptr, i32, i32, i32, i32, i32, ptr, ptr, ptr, ptr, i32, i32, [8 x i64], i32, i32, i32, i32, i32, i32, i32, ptr, ptr, i32, i32, i32, i32, i32, i32, i32, i32, i32, i32, ptr, ptr, i32, i32, ptr, ptr, ptr, ptr, i32, i32, i64, i32, i32, i64, ptr, i64, ptr, i32, ptr, i32 }
%struct.AVRational = type { i32, i32 }
%struct.AVChannelLayout = type { i32, i32, %union.anon.0, ptr }
%union.anon.0 = type { i64 }
%struct.VmdAudioContext = type { i32, i32 }

@.str.2 = private unnamed_addr constant [28 x i8] c"invalid number of channels\0A\00", align 1
@.str.3 = private unnamed_addr constant [21 x i8] c"invalid block align\0A\00", align 1
@.str.4 = private unnamed_addr constant [65 x i8] c"%d channels, %d bits/sample, block align = %d, sample rate = %d\0A\00", align 1

; Function Attrs: cold nounwind optsize uwtable
define internal i32 @vmdaudio_decode_init(ptr noundef %0) #0 {
  %2 = alloca i32, align 4
  %3 = alloca ptr, align 8
  %4 = alloca ptr, align 8
  %5 = alloca i32, align 4
  %6 = alloca i32, align 4
  store ptr %0, ptr %3, align 8, !tbaa !4
  call void @llvm.lifetime.start.p0(i64 8, ptr %4) #8
  %7 = load ptr, ptr %3, align 8, !tbaa !4
  %8 = getelementptr inbounds nuw %struct.AVCodecContext, ptr %7, i32 0, i32 6
  %9 = load ptr, ptr %8, align 8, !tbaa !9
  store ptr %9, ptr %4, align 8, !tbaa !29
  call void @llvm.lifetime.start.p0(i64 4, ptr %5) #8
  %10 = load ptr, ptr %3, align 8, !tbaa !4
  %11 = getelementptr inbounds nuw %struct.AVCodecContext, ptr %10, i32 0, i32 71
  %12 = getelementptr inbounds nuw %struct.AVChannelLayout, ptr %11, i32 0, i32 1
  %13 = load i32, ptr %12, align 4, !tbaa !31
  store i32 %13, ptr %5, align 4, !tbaa !32
  %14 = load i32, ptr %5, align 4, !tbaa !32
  %15 = icmp slt i32 %14, 1
  br i1 %15, label %19, label %16

16:                                               ; preds = %1
  %17 = load i32, ptr %5, align 4, !tbaa !32
  %18 = icmp sgt i32 %17, 2
  br i1 %18, label %19, label %21

19:                                               ; preds = %16, %1
  %20 = load ptr, ptr %3, align 8, !tbaa !4
  call void (ptr, i32, ptr, ...) @av_log(ptr noundef %20, i32 noundef 16, ptr noundef @.str.2)
  store i32 -22, ptr %2, align 4
  store i32 1, ptr %6, align 4
  br label %89

21:                                               ; preds = %16
  %22 = load ptr, ptr %3, align 8, !tbaa !4
  %23 = getelementptr inbounds nuw %struct.AVCodecContext, ptr %22, i32 0, i32 73
  %24 = load i32, ptr %23, align 4, !tbaa !33
  %25 = icmp slt i32 %24, 1
  br i1 %25, label %40, label %26

26:                                               ; preds = %21
  %27 = load ptr, ptr %3, align 8, !tbaa !4
  %28 = getelementptr inbounds nuw %struct.AVCodecContext, ptr %27, i32 0, i32 73
  %29 = load i32, ptr %28, align 4, !tbaa !33
  %30 = load i32, ptr %5, align 4, !tbaa !32
  %31 = srem i32 %29, %30
  %32 = icmp ne i32 %31, 0
  br i1 %32, label %40, label %33

33:                                               ; preds = %26
  %34 = load ptr, ptr %3, align 8, !tbaa !4
  %35 = getelementptr inbounds nuw %struct.AVCodecContext, ptr %34, i32 0, i32 73
  %36 = load i32, ptr %35, align 4, !tbaa !33
  %37 = load i32, ptr %5, align 4, !tbaa !32
  %38 = sub nsw i32 2147483647, %37
  %39 = icmp sgt i32 %36, %38
  br i1 %39, label %40, label %42

40:                                               ; preds = %33, %26, %21
  %41 = load ptr, ptr %3, align 8, !tbaa !4
  call void (ptr, i32, ptr, ...) @av_log(ptr noundef %41, i32 noundef 16, ptr noundef @.str.3)
  store i32 -22, ptr %2, align 4
  store i32 1, ptr %6, align 4
  br label %89

42:                                               ; preds = %33
  %43 = load ptr, ptr %3, align 8, !tbaa !4
  %44 = getelementptr inbounds nuw %struct.AVCodecContext, ptr %43, i32 0, i32 71
  call void @av_channel_layout_uninit(ptr noundef %44)
  %45 = load ptr, ptr %3, align 8, !tbaa !4
  %46 = getelementptr inbounds nuw %struct.AVCodecContext, ptr %45, i32 0, i32 71
  %47 = load i32, ptr %5, align 4, !tbaa !32
  call void @av_channel_layout_default(ptr noundef %46, i32 noundef %47)
  %48 = load ptr, ptr %3, align 8, !tbaa !4
  %49 = getelementptr inbounds nuw %struct.AVCodecContext, ptr %48, i32 0, i32 114
  %50 = load i32, ptr %49, align 8, !tbaa !34
  %51 = icmp eq i32 %50, 16
  br i1 %51, label %52, label %55

52:                                               ; preds = %42
  %53 = load ptr, ptr %3, align 8, !tbaa !4
  %54 = getelementptr inbounds nuw %struct.AVCodecContext, ptr %53, i32 0, i32 70
  store i32 1, ptr %54, align 4, !tbaa !35
  br label %58

55:                                               ; preds = %42
  %56 = load ptr, ptr %3, align 8, !tbaa !4
  %57 = getelementptr inbounds nuw %struct.AVCodecContext, ptr %56, i32 0, i32 70
  store i32 0, ptr %57, align 4, !tbaa !35
  br label %58

58:                                               ; preds = %55, %52
  %59 = load ptr, ptr %3, align 8, !tbaa !4
  %60 = getelementptr inbounds nuw %struct.AVCodecContext, ptr %59, i32 0, i32 70
  %61 = load i32, ptr %60, align 4, !tbaa !35
  %62 = call i32 @av_get_bytes_per_sample(i32 noundef %61)
  %63 = load ptr, ptr %4, align 8, !tbaa !29
  %64 = getelementptr inbounds nuw %struct.VmdAudioContext, ptr %63, i32 0, i32 0
  store i32 %62, ptr %64, align 4, !tbaa !36
  %65 = load ptr, ptr %3, align 8, !tbaa !4
  %66 = getelementptr inbounds nuw %struct.AVCodecContext, ptr %65, i32 0, i32 73
  %67 = load i32, ptr %66, align 4, !tbaa !33
  %68 = load i32, ptr %5, align 4, !tbaa !32
  %69 = load ptr, ptr %4, align 8, !tbaa !29
  %70 = getelementptr inbounds nuw %struct.VmdAudioContext, ptr %69, i32 0, i32 0
  %71 = load i32, ptr %70, align 4, !tbaa !36
  %72 = icmp eq i32 %71, 2
  %73 = zext i1 %72 to i32
  %74 = mul nsw i32 %68, %73
  %75 = add nsw i32 %67, %74
  %76 = load ptr, ptr %4, align 8, !tbaa !29
  %77 = getelementptr inbounds nuw %struct.VmdAudioContext, ptr %76, i32 0, i32 1
  store i32 %75, ptr %77, align 4, !tbaa !38
  %78 = load ptr, ptr %3, align 8, !tbaa !4
  %79 = load i32, ptr %5, align 4, !tbaa !32
  %80 = load ptr, ptr %3, align 8, !tbaa !4
  %81 = getelementptr inbounds nuw %struct.AVCodecContext, ptr %80, i32 0, i32 114
  %82 = load i32, ptr %81, align 8, !tbaa !34
  %83 = load ptr, ptr %3, align 8, !tbaa !4
  %84 = getelementptr inbounds nuw %struct.AVCodecContext, ptr %83, i32 0, i32 73
  %85 = load i32, ptr %84, align 4, !tbaa !33
  %86 = load ptr, ptr %3, align 8, !tbaa !4
  %87 = getelementptr inbounds nuw %struct.AVCodecContext, ptr %86, i32 0, i32 69
  %88 = load i32, ptr %87, align 8, !tbaa !39
  call void (ptr, i32, ptr, ...) @av_log(ptr noundef %78, i32 noundef 48, ptr noundef @.str.4, i32 noundef %79, i32 noundef %82, i32 noundef %85, i32 noundef %88)
  store i32 0, ptr %2, align 4
  store i32 1, ptr %6, align 4
  br label %89

89:                                               ; preds = %58, %40, %19
  call void @llvm.lifetime.end.p0(i64 4, ptr %5) #8
  call void @llvm.lifetime.end.p0(i64 8, ptr %4) #8
  %90 = load i32, ptr %2, align 4
  ret i32 %90
}