; Function Attrs: cold nounwind optsize uwtable
define internal range(i32 -22, 1) i32 @vmdaudio_decode_init(ptr noundef %0) #0 {
  %2 = getelementptr inbounds nuw i8, ptr %0, i64 32
  %3 = load ptr, ptr %2, align 8, !tbaa !4
  %4 = getelementptr inbounds nuw i8, ptr %0, i64 352
  %5 = getelementptr inbounds nuw i8, ptr %0, i64 356
  %6 = load i32, ptr %5, align 4, !tbaa !27
  %7 = add i32 %6, -3
  %or.cond = icmp ult i32 %7, -2
  br i1 %or.cond, label %8, label %9

8:                                                ; preds = %1
  tail call void (ptr, i32, ptr, ...) @av_log(ptr noundef nonnull %0, i32 noundef 16, ptr noundef nonnull @.str.2) #8
  br label %32

9:                                                ; preds = %1
  %10 = getelementptr inbounds nuw i8, ptr %0, i64 380
  %11 = load i32, ptr %10, align 4, !tbaa !28
  %12 = icmp slt i32 %11, 1
  br i1 %12, label %17, label %13

13:                                               ; preds = %9
  %14 = urem i32 %11, %6
  %.not = icmp ne i32 %14, 0
  %15 = sub nuw nsw i32 2147483647, %6
  %16 = icmp samesign ugt i32 %11, %15
  %or.cond32 = select i1 %.not, i1 true, i1 %16
  br i1 %or.cond32, label %17, label %18

17:                                               ; preds = %13, %9
  tail call void (ptr, i32, ptr, ...) @av_log(ptr noundef nonnull %0, i32 noundef 16, ptr noundef nonnull @.str.3) #8
  br label %32

18:                                               ; preds = %13
  tail call void @av_channel_layout_uninit(ptr noundef nonnull %4) #8
  tail call void @av_channel_layout_default(ptr noundef nonnull %4, i32 noundef %6) #8
  %19 = getelementptr inbounds nuw i8, ptr %0, i64 648
  %20 = load i32, ptr %19, align 8, !tbaa !29
  %21 = icmp eq i32 %20, 16
  %spec.select = zext i1 %21 to i32
  %22 = getelementptr inbounds nuw i8, ptr %0, i64 348
  store i32 %spec.select, ptr %22, align 4, !tbaa !30
  %23 = tail call i32 @av_get_bytes_per_sample(i32 noundef %spec.select) #8
  store i32 %23, ptr %3, align 4, !tbaa !31
  %24 = load i32, ptr %10, align 4, !tbaa !28
  %25 = icmp eq i32 %23, 2
  %26 = select i1 %25, i32 %6, i32 0
  %27 = add nsw i32 %24, %26
  %28 = getelementptr inbounds nuw i8, ptr %3, i64 4
  store i32 %27, ptr %28, align 4, !tbaa !33
  %29 = load i32, ptr %19, align 8, !tbaa !29
  %30 = getelementptr inbounds nuw i8, ptr %0, i64 344
  %31 = load i32, ptr %30, align 8, !tbaa !34
  tail call void (ptr, i32, ptr, ...) @av_log(ptr noundef nonnull %0, i32 noundef 48, ptr noundef nonnull @.str.4, i32 noundef %6, i32 noundef %29, i32 noundef %24, i32 noundef %31) #8
  br label %32

32:                                               ; preds = %18, %17, %8
  %.0 = phi i32 [ -22, %8 ], [ -22, %17 ], [ 0, %18 ]
  ret i32 %.0
}